; Function Attrs: mustprogress ssp uwtable
define noundef nonnull align 8 dereferenceable(172) ptr @_ZN6open3d13visualization16SelectionPolygon5ClearEv(ptr noundef nonnull returned align 8 dereferenceable(172) initializes((72, 73)) %0) unnamed_addr #1 align 2 personality ptr @__gxx_personality_v0 {
  %2 = getelementptr inbounds nuw i8, ptr %0, i64 48
  %3 = load ptr, ptr %2, align 8, !tbaa !19
  %4 = getelementptr inbounds nuw i8, ptr %0, i64 56
  %5 = load ptr, ptr %4, align 8, !tbaa !23
  %.not.i.i = icmp eq ptr %5, %3
  br i1 %.not.i.i, label %_ZNSt6vectorIN5Eigen6MatrixIdLi2ELi1ELi0ELi2ELi1EEESaIS2_EE5clearEv.exit, label %_ZSt8_DestroyIPN5Eigen6MatrixIdLi2ELi1ELi0ELi2ELi1EEES2_EvT_S4_RSaIT0_E.exit.i.i

_ZSt8_DestroyIPN5Eigen6MatrixIdLi2ELi1ELi0ELi2ELi1EEES2_EvT_S4_RSaIT0_E.exit.i.i: ; preds = %1
  store ptr %3, ptr %4, align 8, !tbaa !23
  br label %_ZNSt6vectorIN5Eigen6MatrixIdLi2ELi1ELi0ELi2ELi1EEESaIS2_EE5clearEv.exit

_ZNSt6vectorIN5Eigen6MatrixIdLi2ELi1ELi0ELi2ELi1EEESaIS2_EE5clearEv.exit: ; preds = %1, %_ZSt8_DestroyIPN5Eigen6MatrixIdLi2ELi1ELi0ELi2ELi1EEES2_EvT_S4_RSaIT0_E.exit.i.i
  %6 = getelementptr inbounds nuw i8, ptr %0, i64 72
  store i8 0, ptr %6, align 8, !tbaa !24
  %7 = getelementptr inbounds nuw i8, ptr %0, i64 80
  %8 = tail call noundef nonnull align 8 dereferenceable(88) ptr @_ZN6open3d8geometry5Image5ClearEv(ptr noundef nonnull align 8 dereferenceable(88) %7)
  %9 = getelementptr inbounds nuw i8, ptr %0, i64 168
  store i32 0, ptr %9, align 8, !tbaa !39
  ret ptr %0
}